target datalayout = "e-m:e-p270:32:32-p271:32:32-p272:64:64-i64:64-i128:128-f80:128-n8:16:32:64-S128"
target triple = "x86_64-pc-linux-gnu"

@.str.3 = private unnamed_addr constant [2 x i8] c",\00", align 1
@.str.48 = private unnamed_addr constant [1 x i8] zeroinitializer, align 1
@.str.61 = private unnamed_addr constant [4 x i8] c"a2a\00", align 1
@.str.63 = private unnamed_addr constant [5 x i8] c"hemi\00", align 1
@.str.65 = private unnamed_addr constant [5 x i8] c"quad\00", align 1
@.str.67 = private unnamed_addr constant [5 x i8] c"snc2\00", align 1
@.str.69 = private unnamed_addr constant [5 x i8] c"snc4\00", align 1
@.str.72 = private unnamed_addr constant [5 x i8] c"%s%s\00", align 1
@.str.92 = private unnamed_addr constant [7 x i8] c"[]()|&\00", align 1

; Function Attrs: nounwind uwtable
define internal zeroext i16 @_knl_numa_token(ptr noundef %0) #0 {
  %2 = alloca ptr, align 8
  %3 = alloca i16, align 2
  store ptr %0, ptr %2, align 8
  call void @llvm.lifetime.start.p0(i64 2, ptr %3) #9
  store i16 0, ptr %3, align 2
  %4 = load ptr, ptr %2, align 8
  %5 = call i32 @xstrcasecmp(ptr noundef %4, ptr noundef @.str.61)
  %6 = icmp ne i32 %5, 0
  br i1 %6, label %12, label %7

7:                                                ; preds = %1
  %8 = load i16, ptr %3, align 2
  %9 = zext i16 %8 to i32
  %10 = or i32 %9, 1
  %11 = trunc i32 %10 to i16
  store i16 %11, ptr %3, align 2
  br label %52

12:                                               ; preds = %1
  %13 = load ptr, ptr %2, align 8
  %14 = call i32 @xstrcasecmp(ptr noundef %13, ptr noundef @.str.67)
  %15 = icmp ne i32 %14, 0
  br i1 %15, label %21, label %16

16:                                               ; preds = %12
  %17 = load i16, ptr %3, align 2
  %18 = zext i16 %17 to i32
  %19 = or i32 %18, 2
  %20 = trunc i32 %19 to i16
  store i16 %20, ptr %3, align 2
  br label %51

21:                                               ; preds = %12
  %22 = load ptr, ptr %2, align 8
  %23 = call i32 @xstrcasecmp(ptr noundef %22, ptr noundef @.str.69)
  %24 = icmp ne i32 %23, 0
  br i1 %24, label %30, label %25

25:                                               ; preds = %21
  %26 = load i16, ptr %3, align 2
  %27 = zext i16 %26 to i32
  %28 = or i32 %27, 4
  %29 = trunc i32 %28 to i16
  store i16 %29, ptr %3, align 2
  br label %50

30:                                               ; preds = %21
  %31 = load ptr, ptr %2, align 8
  %32 = call i32 @xstrcasecmp(ptr noundef %31, ptr noundef @.str.63)
  %33 = icmp ne i32 %32, 0
  br i1 %33, label %39, label %34

34:                                               ; preds = %30
  %35 = load i16, ptr %3, align 2
  %36 = zext i16 %35 to i32
  %37 = or i32 %36, 8
  %38 = trunc i32 %37 to i16
  store i16 %38, ptr %3, align 2
  br label %49

39:                                               ; preds = %30
  %40 = load ptr, ptr %2, align 8
  %41 = call i32 @xstrcasecmp(ptr noundef %40, ptr noundef @.str.65)
  %42 = icmp ne i32 %41, 0
  br i1 %42, label %48, label %43

43:                                               ; preds = %39
  %44 = load i16, ptr %3, align 2
  %45 = zext i16 %44 to i32
  %46 = or i32 %45, 16
  %47 = trunc i32 %46 to i16
  store i16 %47, ptr %3, align 2
  br label %48

48:                                               ; preds = %43, %39
  br label %49

49:                                               ; preds = %48, %34
  br label %50

50:                                               ; preds = %49, %25
  br label %51

51:                                               ; preds = %50, %16
  br label %52

52:                                               ; preds = %51, %7
  %53 = load i16, ptr %3, align 2
  call void @llvm.lifetime.end.p0(i64 2, ptr %3) #9
  ret i16 %53
}

; Function Attrs: nounwind uwtable
define dso_local ptr @node_features_p_job_xlate(ptr noundef %0, ptr noundef %1, ptr noundef %2) #0 {
  %4 = alloca ptr, align 8
  %5 = alloca ptr, align 8
  %6 = alloca ptr, align 8
  %7 = alloca ptr, align 8
  %8 = alloca ptr, align 8
  %9 = alloca ptr, align 8
  %10 = alloca ptr, align 8
  %11 = alloca ptr, align 8
  %12 = alloca ptr, align 8
  %13 = alloca ptr, align 8
  %14 = alloca i8, align 1
  %15 = alloca i8, align 1
  %16 = alloca i32, align 4
  %17 = alloca i8, align 1
  store ptr %0, ptr %5, align 8
  store ptr %1, ptr %6, align 8
  store ptr %2, ptr %7, align 8
  call void @llvm.lifetime.start.p0(i64 8, ptr %8) #9
  store ptr null, ptr %8, align 8
  call void @llvm.lifetime.start.p0(i64 8, ptr %9) #9
  call void @llvm.lifetime.start.p0(i64 8, ptr %10) #9
  store ptr null, ptr %10, align 8
  call void @llvm.lifetime.start.p0(i64 8, ptr %11) #9
  call void @llvm.lifetime.start.p0(i64 8, ptr %12) #9
  store ptr @.str.48, ptr %12, align 8
  call void @llvm.lifetime.start.p0(i64 8, ptr %13) #9
  call void @llvm.lifetime.start.p0(i64 1, ptr %14) #9
  store i8 0, ptr %14, align 1
  call void @llvm.lifetime.start.p0(i64 1, ptr %15) #9
  store i8 0, ptr %15, align 1
  %18 = load ptr, ptr %5, align 8
  %19 = icmp ne ptr %18, null
  br i1 %19, label %22, label %20

20:                                               ; preds = %3
  %21 = load ptr, ptr %8, align 8
  store ptr %21, ptr %4, align 8
  store i32 1, ptr %16, align 4
  br label %65

22:                                               ; preds = %3
  %23 = load ptr, ptr %5, align 8
  %24 = call ptr @xstrdup(ptr noundef %23)
  store ptr %24, ptr %9, align 8
  %25 = load ptr, ptr %9, align 8
  %26 = call ptr @strtok_r(ptr noundef %25, ptr noundef @.str.92, ptr noundef %10) #9
  store ptr %26, ptr %13, align 8
  br label %27

27:                                               ; preds = %61, %22
  %28 = load ptr, ptr %13, align 8
  %29 = icmp ne ptr %28, null
  br i1 %29, label %30, label %63

30:                                               ; preds = %27
  call void @llvm.lifetime.start.p0(i64 1, ptr %17) #9
  store i8 0, ptr %17, align 1
  %31 = load ptr, ptr %13, align 8
  %32 = call ptr @strchr(ptr noundef %31, i32 noundef 42) #12
  store ptr %32, ptr %11, align 8
  %33 = icmp ne ptr %32, null
  br i1 %33, label %34, label %37

34:                                               ; preds = %30
  %35 = load ptr, ptr %11, align 8
  %36 = getelementptr inbounds i8, ptr %35, i64 0
  store i8 0, ptr %36, align 1
  br label %37

37:                                               ; preds = %34, %30
  %38 = load ptr, ptr %13, align 8
  %39 = call zeroext i16 @_knl_mcdram_token(ptr noundef %38)
  %40 = icmp ne i16 %39, 0
  br i1 %40, label %41, label %46

41:                                               ; preds = %37
  %42 = load i8, ptr %15, align 1, !range !28, !noundef !29
  %43 = trunc i8 %42 to i1
  br i1 %43, label %45, label %44

44:                                               ; preds = %41
  store i8 1, ptr %15, align 1
  store i8 1, ptr %17, align 1
  br label %45

45:                                               ; preds = %44, %41
  br label %46

46:                                               ; preds = %45, %37
  %47 = load ptr, ptr %13, align 8
  %48 = call zeroext i16 @_knl_numa_token(ptr noundef %47)
  %49 = icmp ne i16 %48, 0
  br i1 %49, label %50, label %55

50:                                               ; preds = %46
  %51 = load i8, ptr %14, align 1, !range !28, !noundef !29
  %52 = trunc i8 %51 to i1
  br i1 %52, label %54, label %53

53:                                               ; preds = %50
  store i8 1, ptr %14, align 1
  store i8 1, ptr %17, align 1
  br label %54

54:                                               ; preds = %53, %50
  br label %55

55:                                               ; preds = %54, %46
  %56 = load i8, ptr %17, align 1, !range !28, !noundef !29
  %57 = trunc i8 %56 to i1
  br i1 %57, label %58, label %61

58:                                               ; preds = %55
  %59 = load ptr, ptr %12, align 8
  %60 = load ptr, ptr %13, align 8
  call void (ptr, ptr, ...) @_xstrfmtcat(ptr noundef %8, ptr noundef @.str.72, ptr noundef %59, ptr noundef %60)
  store ptr @.str.3, ptr %12, align 8
  br label %61

61:                                               ; preds = %58, %55
  %62 = call ptr @strtok_r(ptr noundef null, ptr noundef @.str.92, ptr noundef %10) #9
  store ptr %62, ptr %13, align 8
  call void @llvm.lifetime.end.p0(i64 1, ptr %17) #9
  br label %27, !llvm.loop !34

63:                                               ; preds = %27
  call void @slurm_xfree(ptr noundef %9)
  %64 = load ptr, ptr %8, align 8
  store ptr %64, ptr %4, align 8
  store i32 1, ptr %16, align 4
  br label %65

65:                                               ; preds = %63, %20
  call void @llvm.lifetime.end.p0(i64 1, ptr %15) #9
  call void @llvm.lifetime.end.p0(i64 1, ptr %14) #9
  call void @llvm.lifetime.end.p0(i64 8, ptr %13) #9
  call void @llvm.lifetime.end.p0(i64 8, ptr %12) #9
  call void @llvm.lifetime.end.p0(i64 8, ptr %11) #9
  call void @llvm.lifetime.end.p0(i64 8, ptr %10) #9
  call void @llvm.lifetime.end.p0(i64 8, ptr %9) #9
  call void @llvm.lifetime.end.p0(i64 8, ptr %8) #9
  %66 = load ptr, ptr %4, align 8
  ret ptr %66
}