; Function Attrs: nounwind uwtable
define dso_local ptr @node_features_p_job_xlate(ptr noundef %0, ptr noundef readnone captures(none) %1, ptr noundef readnone captures(none) %2) local_unnamed_addr #0 {
  %4 = alloca ptr, align 8
  %5 = alloca ptr, align 8
  %6 = alloca ptr, align 8
  call void @llvm.lifetime.start.p0(i64 8, ptr nonnull %4) #14
  store ptr null, ptr %4, align 8
  call void @llvm.lifetime.start.p0(i64 8, ptr nonnull %5) #14
  call void @llvm.lifetime.start.p0(i64 8, ptr nonnull %6) #14
  store ptr null, ptr %6, align 8
  %.not = icmp eq ptr %0, null
  br i1 %.not, label %30, label %7

7:                                                ; preds = %3
  %8 = tail call ptr @xstrdup(ptr noundef nonnull %0) #14
  store ptr %8, ptr %5, align 8
  %9 = call ptr @strtok_r(ptr noundef %8, ptr noundef nonnull @.str.92, ptr noundef nonnull %6) #14
  %.not2229 = icmp eq ptr %9, null
  br i1 %.not2229, label %._crit_edge, label %.lr.ph

.lr.ph:                                           ; preds = %7, %28
  %.01233 = phi i1 [ %.113, %28 ], [ false, %7 ]
  %.01432 = phi i1 [ %.115, %28 ], [ false, %7 ]
  %.01631 = phi ptr [ %29, %28 ], [ %9, %7 ]
  %.01730 = phi ptr [ %.118, %28 ], [ @.str.48, %7 ]
  %10 = call ptr @strchr(ptr noundef nonnull dereferenceable(1) %.01631, i32 noundef 42) #16
  %.not23 = icmp eq ptr %10, null
  br i1 %.not23, label %12, label %11

11:                                               ; preds = %.lr.ph
  store i8 0, ptr %10, align 1
  br label %12

12:                                               ; preds = %11, %.lr.ph
  %13 = call fastcc zeroext i16 @_knl_mcdram_token(ptr noundef nonnull %.01631)
  %.not24 = icmp ne i16 %13, 0
  %.113 = select i1 %.not24, i1 true, i1 %.01233
  %14 = call i32 @xstrcasecmp(ptr noundef nonnull %.01631, ptr noundef nonnull @.str.61) #14
  %.not.i = icmp eq i32 %14, 0
  br i1 %.not.i, label %_knl_numa_token.exit, label %15

15:                                               ; preds = %12
  %16 = call i32 @xstrcasecmp(ptr noundef nonnull %.01631, ptr noundef nonnull @.str.67) #14
  %.not10.i = icmp eq i32 %16, 0
  br i1 %.not10.i, label %_knl_numa_token.exit, label %17

17:                                               ; preds = %15
  %18 = call i32 @xstrcasecmp(ptr noundef nonnull %.01631, ptr noundef nonnull @.str.69) #14
  %.not11.i = icmp eq i32 %18, 0
  br i1 %.not11.i, label %_knl_numa_token.exit, label %19

19:                                               ; preds = %17
  %20 = call i32 @xstrcasecmp(ptr noundef nonnull %.01631, ptr noundef nonnull @.str.63) #14
  %.not12.i = icmp eq i32 %20, 0
  br i1 %.not12.i, label %_knl_numa_token.exit, label %21

21:                                               ; preds = %19
  %22 = call i32 @xstrcasecmp(ptr noundef nonnull %.01631, ptr noundef nonnull @.str.65) #14
  %.not13.i = icmp ne i32 %22, 0
  br label %_knl_numa_token.exit

_knl_numa_token.exit:                             ; preds = %12, %15, %17, %19, %21
  %.0.i = phi i1 [ false, %12 ], [ false, %15 ], [ false, %17 ], [ false, %19 ], [ %.not13.i, %21 ]
  %not..0.i = xor i1 %.0.i, true
  %.115 = select i1 %not..0.i, i1 true, i1 %.01432
  %23 = select i1 %.0.i, i1 true, i1 %.01432
  %24 = xor i1 %.01233, true
  %25 = select i1 %.not24, i1 %24, i1 false
  %not. = xor i1 %23, true
  %26 = select i1 %not., i1 true, i1 %25
  br i1 %26, label %27, label %28

27:                                               ; preds = %_knl_numa_token.exit
  call void (ptr, ptr, ...) @_xstrfmtcat(ptr noundef nonnull %4, ptr noundef nonnull @.str.72, ptr noundef %.01730, ptr noundef nonnull %.01631) #14
  br label %28

28:                                               ; preds = %27, %_knl_numa_token.exit
  %.118 = phi ptr [ @.str.3, %27 ], [ %.01730, %_knl_numa_token.exit ]
  %29 = call ptr @strtok_r(ptr noundef null, ptr noundef nonnull @.str.92, ptr noundef nonnull %6) #14
  %.not22 = icmp eq ptr %29, null
  br i1 %.not22, label %._crit_edge, label %.lr.ph, !llvm.loop !30

._crit_edge:                                      ; preds = %28, %7
  call void @slurm_xfree(ptr noundef nonnull %5) #14
  %.019.pre = load ptr, ptr %4, align 8
  br label %30

30:                                               ; preds = %3, %._crit_edge
  %.019 = phi ptr [ null, %3 ], [ %.019.pre, %._crit_edge ]
  call void @llvm.lifetime.end.p0(i64 8, ptr nonnull %6) #14
  call void @llvm.lifetime.end.p0(i64 8, ptr nonnull %5) #14
  call void @llvm.lifetime.end.p0(i64 8, ptr nonnull %4) #14
  ret ptr %.019
}